target datalayout = "e-m:e-p270:32:32-p271:32:32-p272:64:64-i64:64-i128:128-f80:128-n8:16:32:64-S128"
target triple = "x86_64-pc-linux-gnu"

@hf_hartip_pt_rsp_extended_device_status = internal global i32 0, align 4
@hf_hartip_pt_rsp_device_sp_status = internal global i32 0, align 4
@hf_hartip_pt_rsp_device_op_mode = internal global i32 0, align 4
@hf_hartip_pt_rsp_standardized_status_0 = internal global i32 0, align 4
@hf_hartip_pt_rsp_standardized_status_1 = internal global i32 0, align 4
@hf_hartip_pt_rsp_analog_channel_saturated = internal global i32 0, align 4
@hf_hartip_pt_rsp_standardized_status_2 = internal global i32 0, align 4
@hf_hartip_pt_rsp_standardized_status_3 = internal global i32 0, align 4
@hf_hartip_pt_rsp_analog_channel_fixed = internal global i32 0, align 4

; Function Attrs: null_pointer_is_valid sspstrong uwtable
define internal i32 @dissect_byte(ptr noundef %0, i32 noundef %1, ptr noundef %2, i32 noundef %3) #0 {
  %5 = alloca ptr, align 8
  %6 = alloca i32, align 4
  %7 = alloca ptr, align 8
  %8 = alloca i32, align 4
  store ptr %0, ptr %5, align 8
  store i32 %1, ptr %6, align 4
  store ptr %2, ptr %7, align 8
  store i32 %3, ptr %8, align 4
  %9 = load ptr, ptr %5, align 8
  %10 = load i32, ptr %6, align 4
  %11 = load ptr, ptr %7, align 8
  %12 = load i32, ptr %8, align 4
  %13 = call ptr @proto_tree_add_item(ptr noundef %9, i32 noundef %10, ptr noundef %11, i32 noundef %12, i32 noundef 1, i32 noundef 0)
  ret i32 1
}

; Function Attrs: null_pointer_is_valid sspstrong uwtable
define internal i32 @dissect_cmd48(ptr noundef %0, ptr noundef %1, i32 noundef %2, i32 noundef %3) #0 {
  %5 = alloca i32, align 4
  %6 = alloca ptr, align 8
  %7 = alloca ptr, align 8
  %8 = alloca i32, align 4
  %9 = alloca i32, align 4
  store ptr %0, ptr %6, align 8
  store ptr %1, ptr %7, align 8
  store i32 %2, ptr %8, align 4
  store i32 %3, ptr %9, align 4
  %10 = load i32, ptr %9, align 4
  %11 = icmp sge i32 %10, 6
  br i1 %11, label %12, label %98

12:                                               ; preds = %4
  %13 = load ptr, ptr %6, align 8
  %14 = load i32, ptr @hf_hartip_pt_rsp_device_sp_status, align 4
  %15 = load ptr, ptr %7, align 8
  %16 = load i32, ptr %8, align 4
  %17 = call ptr @proto_tree_add_item(ptr noundef %13, i32 noundef %14, ptr noundef %15, i32 noundef %16, i32 noundef 6, i32 noundef 0)
  %18 = load i32, ptr %8, align 4
  %19 = add i32 %18, 6
  store i32 %19, ptr %8, align 4
  %20 = load i32, ptr %9, align 4
  %21 = icmp sge i32 %20, 9
  br i1 %21, label %22, label %44

22:                                               ; preds = %12
  %23 = load ptr, ptr %6, align 8
  %24 = load i32, ptr @hf_hartip_pt_rsp_extended_device_status, align 4
  %25 = load ptr, ptr %7, align 8
  %26 = load i32, ptr %8, align 4
  %27 = call i32 @dissect_byte(ptr noundef %23, i32 noundef %24, ptr noundef %25, i32 noundef %26)
  %28 = load i32, ptr %8, align 4
  %29 = add i32 %28, %27
  store i32 %29, ptr %8, align 4
  %30 = load ptr, ptr %6, align 8
  %31 = load i32, ptr @hf_hartip_pt_rsp_device_op_mode, align 4
  %32 = load ptr, ptr %7, align 8
  %33 = load i32, ptr %8, align 4
  %34 = call i32 @dissect_byte(ptr noundef %30, i32 noundef %31, ptr noundef %32, i32 noundef %33)
  %35 = load i32, ptr %8, align 4
  %36 = add i32 %35, %34
  store i32 %36, ptr %8, align 4
  %37 = load ptr, ptr %6, align 8
  %38 = load i32, ptr @hf_hartip_pt_rsp_standardized_status_0, align 4
  %39 = load ptr, ptr %7, align 8
  %40 = load i32, ptr %8, align 4
  %41 = call i32 @dissect_byte(ptr noundef %37, i32 noundef %38, ptr noundef %39, i32 noundef %40)
  %42 = load i32, ptr %8, align 4
  %43 = add i32 %42, %41
  store i32 %43, ptr %8, align 4
  br label %44

44:                                               ; preds = %22, %12
  %45 = load i32, ptr %9, align 4
  %46 = icmp sge i32 %45, 13
  br i1 %46, label %47, label %76

47:                                               ; preds = %44
  %48 = load ptr, ptr %6, align 8
  %49 = load i32, ptr @hf_hartip_pt_rsp_standardized_status_1, align 4
  %50 = load ptr, ptr %7, align 8
  %51 = load i32, ptr %8, align 4
  %52 = call i32 @dissect_byte(ptr noundef %48, i32 noundef %49, ptr noundef %50, i32 noundef %51)
  %53 = load i32, ptr %8, align 4
  %54 = add i32 %53, %52
  store i32 %54, ptr %8, align 4
  %55 = load ptr, ptr %6, align 8
  %56 = load i32, ptr @hf_hartip_pt_rsp_analog_channel_saturated, align 4
  %57 = load ptr, ptr %7, align 8
  %58 = load i32, ptr %8, align 4
  %59 = call i32 @dissect_byte(ptr noundef %55, i32 noundef %56, ptr noundef %57, i32 noundef %58)
  %60 = load i32, ptr %8, align 4
  %61 = add i32 %60, %59
  store i32 %61, ptr %8, align 4
  %62 = load ptr, ptr %6, align 8
  %63 = load i32, ptr @hf_hartip_pt_rsp_standardized_status_2, align 4
  %64 = load ptr, ptr %7, align 8
  %65 = load i32, ptr %8, align 4
  %66 = call i32 @dissect_byte(ptr noundef %62, i32 noundef %63, ptr noundef %64, i32 noundef %65)
  %67 = load i32, ptr %8, align 4
  %68 = add i32 %67, %66
  store i32 %68, ptr %8, align 4
  %69 = load ptr, ptr %6, align 8
  %70 = load i32, ptr @hf_hartip_pt_rsp_standardized_status_3, align 4
  %71 = load ptr, ptr %7, align 8
  %72 = load i32, ptr %8, align 4
  %73 = call i32 @dissect_byte(ptr noundef %69, i32 noundef %70, ptr noundef %71, i32 noundef %72)
  %74 = load i32, ptr %8, align 4
  %75 = add i32 %74, %73
  store i32 %75, ptr %8, align 4
  br label %76

76:                                               ; preds = %47, %44
  %77 = load i32, ptr %9, align 4
  %78 = icmp sge i32 %77, 14
  br i1 %78, label %79, label %87

79:                                               ; preds = %76
  %80 = load ptr, ptr %6, align 8
  %81 = load i32, ptr @hf_hartip_pt_rsp_analog_channel_fixed, align 4
  %82 = load ptr, ptr %7, align 8
  %83 = load i32, ptr %8, align 4
  %84 = call i32 @dissect_byte(ptr noundef %80, i32 noundef %81, ptr noundef %82, i32 noundef %83)
  %85 = load i32, ptr %8, align 4
  %86 = add i32 %85, %84
  store i32 %86, ptr %8, align 4
  br label %87

87:                                               ; preds = %79, %76
  %88 = load i32, ptr %9, align 4
  %89 = icmp sge i32 %88, 24
  br i1 %89, label %90, label %96

90:                                               ; preds = %87
  %91 = load ptr, ptr %6, align 8
  %92 = load i32, ptr @hf_hartip_pt_rsp_device_sp_status, align 4
  %93 = load ptr, ptr %7, align 8
  %94 = load i32, ptr %8, align 4
  %95 = call ptr @proto_tree_add_item(ptr noundef %91, i32 noundef %92, ptr noundef %93, i32 noundef %94, i32 noundef 11, i32 noundef 0)
  br label %96

96:                                               ; preds = %90, %87
  %97 = load i32, ptr %9, align 4
  store i32 %97, ptr %5, align 4
  br label %99

98:                                               ; preds = %4
  store i32 0, ptr %5, align 4
  br label %99

99:                                               ; preds = %98, %96
  %100 = load i32, ptr %5, align 4
  ret i32 %100
}