; Function Attrs: null_pointer_is_valid sspstrong uwtable
define internal fastcc range(i32 0, 2147483647) i32 @dissect_cmd48(ptr noundef %0, ptr noundef %1, i32 noundef %2, i32 noundef range(i32 1, 2147483647) %3) unnamed_addr #0 {
  %5 = icmp samesign ugt i32 %3, 5
  br i1 %5, label %6, label %.thread51

6:                                                ; preds = %4
  %7 = load i32, ptr @hf_hartip_pt_rsp_device_sp_status, align 4
  %8 = tail call ptr @proto_tree_add_item(ptr noundef %0, i32 noundef %7, ptr noundef %1, i32 noundef %2, i32 noundef 6, i32 noundef 0)
  %9 = icmp samesign ugt i32 %3, 8
  br i1 %9, label %10, label %.thread51

10:                                               ; preds = %6
  %11 = add i32 %2, 6
  %12 = load i32, ptr @hf_hartip_pt_rsp_extended_device_status, align 4
  %13 = tail call ptr @proto_tree_add_item(ptr noundef %0, i32 noundef %12, ptr noundef %1, i32 noundef %11, i32 noundef 1, i32 noundef 0)
  %14 = add i32 %2, 7
  %15 = load i32, ptr @hf_hartip_pt_rsp_device_op_mode, align 4
  %16 = tail call ptr @proto_tree_add_item(ptr noundef %0, i32 noundef %15, ptr noundef %1, i32 noundef %14, i32 noundef 1, i32 noundef 0)
  %17 = add i32 %2, 8
  %18 = load i32, ptr @hf_hartip_pt_rsp_standardized_status_0, align 4
  %19 = tail call ptr @proto_tree_add_item(ptr noundef %0, i32 noundef %18, ptr noundef %1, i32 noundef %17, i32 noundef 1, i32 noundef 0)
  %20 = icmp samesign ugt i32 %3, 12
  br i1 %20, label %21, label %.thread51

21:                                               ; preds = %10
  %22 = add i32 %2, 9
  %23 = load i32, ptr @hf_hartip_pt_rsp_standardized_status_1, align 4
  %24 = tail call ptr @proto_tree_add_item(ptr noundef %0, i32 noundef %23, ptr noundef %1, i32 noundef %22, i32 noundef 1, i32 noundef 0)
  %25 = add i32 %2, 10
  %26 = load i32, ptr @hf_hartip_pt_rsp_analog_channel_saturated, align 4
  %27 = tail call ptr @proto_tree_add_item(ptr noundef %0, i32 noundef %26, ptr noundef %1, i32 noundef %25, i32 noundef 1, i32 noundef 0)
  %28 = add i32 %2, 11
  %29 = load i32, ptr @hf_hartip_pt_rsp_standardized_status_2, align 4
  %30 = tail call ptr @proto_tree_add_item(ptr noundef %0, i32 noundef %29, ptr noundef %1, i32 noundef %28, i32 noundef 1, i32 noundef 0)
  %31 = add i32 %2, 12
  %32 = load i32, ptr @hf_hartip_pt_rsp_standardized_status_3, align 4
  %33 = tail call ptr @proto_tree_add_item(ptr noundef %0, i32 noundef %32, ptr noundef %1, i32 noundef %31, i32 noundef 1, i32 noundef 0)
  %.not = icmp eq i32 %3, 13
  br i1 %.not, label %.thread51, label %34

34:                                               ; preds = %21
  %35 = add i32 %2, 13
  %36 = load i32, ptr @hf_hartip_pt_rsp_analog_channel_fixed, align 4
  %37 = tail call ptr @proto_tree_add_item(ptr noundef %0, i32 noundef %36, ptr noundef %1, i32 noundef %35, i32 noundef 1, i32 noundef 0)
  %38 = icmp samesign ugt i32 %3, 23
  br i1 %38, label %39, label %.thread51

39:                                               ; preds = %34
  %40 = add i32 %2, 14
  %41 = load i32, ptr @hf_hartip_pt_rsp_device_sp_status, align 4
  %42 = tail call ptr @proto_tree_add_item(ptr noundef %0, i32 noundef %41, ptr noundef %1, i32 noundef %40, i32 noundef 11, i32 noundef 0)
  br label %.thread51

.thread51:                                        ; preds = %6, %10, %21, %4, %34, %39
  %.0 = phi i32 [ %3, %39 ], [ %3, %34 ], [ 0, %4 ], [ 13, %21 ], [ %3, %10 ], [ %3, %6 ]
  ret i32 %.0
}